; Function Attrs: mustprogress nounwind uwtable
define void @_ZN3spv11SpirvStream12decodeStringB5cxx11Ev(ptr dead_on_unwind noalias writable sret(%"struct.std::pair") align 8 %0, ptr nocapture noundef nonnull readonly align 8 dereferenceable(180) %1) local_unnamed_addr #3 align 2 {
  %3 = alloca %"class.std::__cxx11::basic_string", align 8
  call void @_ZNSt7__cxx1112basic_stringIcSt11char_traitsIcESaIcEEC1Ev(ptr noundef nonnull align 8 dereferenceable(32) %3) #18
  %4 = getelementptr inbounds i8, ptr %1, i64 28
  %5 = load i32, ptr %4, align 4
  %6 = getelementptr inbounds i8, ptr %1, i64 16
  %7 = sext i32 %5 to i64
  br label %8

8:                                                ; preds = %25, %2
  %indvars.iv = phi i64 [ %indvars.iv.next, %25 ], [ %7, %2 ]
  %9 = load ptr, ptr %6, align 8
  %10 = load ptr, ptr %9, align 8
  %11 = getelementptr inbounds i32, ptr %10, i64 %indvars.iv
  %12 = load i32, ptr %11, align 4
  br label %13

13:                                               ; preds = %8, %20
  %.015 = phi i32 [ 0, %8 ], [ %24, %20 ]
  %.01014 = phi i32 [ %12, %8 ], [ %22, %20 ]
  %sext.mask = and i32 %.01014, 255
  %14 = icmp eq i32 %sext.mask, 0
  br i1 %14, label %.thread, label %20

.thread:                                          ; preds = %13
  %15 = trunc nsw i64 %indvars.iv to i32
  %16 = add nsw i32 %15, 1
  %17 = load i32, ptr %4, align 4
  %18 = sub i32 %16, %17
  store i32 %18, ptr %0, align 8, !alias.scope !29
  %19 = getelementptr inbounds i8, ptr %0, i64 8
  call void @_ZNSt7__cxx1112basic_stringIcSt11char_traitsIcESaIcEEC1ERKS4_(ptr noundef nonnull align 8 dereferenceable(32) %19, ptr noundef nonnull align 8 dereferenceable(32) %3) #18
  call void @_ZNSt7__cxx1112basic_stringIcSt11char_traitsIcESaIcEED1Ev(ptr noundef nonnull align 8 dereferenceable(32) %3) #18
  ret void

20:                                               ; preds = %13
  %21 = trunc i32 %.01014 to i8
  %22 = lshr i32 %.01014, 8
  %23 = call noundef nonnull align 8 dereferenceable(32) ptr @_ZNSt7__cxx1112basic_stringIcSt11char_traitsIcESaIcEEpLEc(ptr noundef nonnull align 8 dereferenceable(32) %3, i8 noundef signext %21) #18
  %24 = add nuw nsw i32 %.015, 1
  %exitcond.not = icmp eq i32 %24, 4
  br i1 %exitcond.not, label %25, label %13, !llvm.loop !11

25:                                               ; preds = %20
  %indvars.iv.next = add nsw i64 %indvars.iv, 1
  br label %8, !llvm.loop !12
}